target datalayout = "e-m:e-p270:32:32-p271:32:32-p272:64:64-i64:64-i128:128-f80:128-n8:16:32:64-S128"
target triple = "x86_64-pc-linux-gnu"

%struct.slurm_opt_t = type { ptr, ptr, ptr, ptr, ptr, ptr, ptr, ptr, i32, ptr, ptr, ptr, ptr, i32, i32, ptr, i32, i8, i8, i32, i8, i32, i32, ptr, i8, i32, i32, i64, i32, i32, i32, i32, i32, i32, ptr, i32, ptr, i8, i32, i32, ptr, i32, i32, i32, ptr, ptr, i32, i32, ptr, ptr, ptr, i32, i16, i16, i16, i8, i8, ptr, i8, i16, ptr, ptr, i32, i32, i32, ptr, ptr, ptr, ptr, ptr, ptr, i32, i64, i64, i64, i16, i64, ptr, ptr, ptr, ptr, ptr, ptr, ptr, i8, ptr, ptr, ptr, ptr, i8, i64, ptr, i16, ptr, i32, i32, ptr, ptr, i32, i32, i32, ptr, i32, i32, i32, i32, i32, ptr, i64, i32, i16, i32, ptr, ptr, ptr, ptr, ptr, i16, ptr, ptr, i16, i8, ptr, ptr, ptr, ptr }

@.str.105 = private unnamed_addr constant [2 x i8] c"=\00", align 1

; Function Attrs: nounwind uwtable
define dso_local i32 @spank_unset_job_env(ptr noundef %0) #0 {
  %2 = alloca i32, align 4
  %3 = alloca ptr, align 8
  %4 = alloca i32, align 4
  %5 = alloca i32, align 4
  %6 = alloca i32, align 4
  %7 = alloca ptr, align 8
  %8 = alloca i32, align 4
  store ptr %0, ptr %3, align 8
  call void @llvm.lifetime.start.p0(i64 4, ptr %4) #9
  call void @llvm.lifetime.start.p0(i64 4, ptr %5) #9
  call void @llvm.lifetime.start.p0(i64 4, ptr %6) #9
  call void @llvm.lifetime.start.p0(i64 8, ptr %7) #9
  store ptr null, ptr %7, align 8
  %9 = load ptr, ptr %3, align 8
  %10 = icmp eq ptr %9, null
  br i1 %10, label %21, label %11

11:                                               ; preds = %1
  %12 = load ptr, ptr %3, align 8
  %13 = getelementptr inbounds i8, ptr %12, i64 0
  %14 = load i8, ptr %13, align 1
  %15 = sext i8 %14 to i32
  %16 = icmp eq i32 %15, 0
  br i1 %16, label %21, label %17

17:                                               ; preds = %11
  %18 = load ptr, ptr %3, align 8
  %19 = call ptr @strchr(ptr noundef %18, i32 noundef 61) #11
  %20 = icmp ne ptr %19, null
  br i1 %20, label %21, label %23

21:                                               ; preds = %17, %11, %1
  %22 = call ptr @__errno_location() #13
  store i32 22, ptr %22, align 4
  store i32 -1, ptr %2, align 4
  store i32 1, ptr %8, align 4
  br label %81

23:                                               ; preds = %17
  %24 = load ptr, ptr %3, align 8
  call void @_xstrcat(ptr noundef %7, ptr noundef %24)
  call void @_xstrcat(ptr noundef %7, ptr noundef @.str.105)
  %25 = load ptr, ptr %7, align 8
  %26 = call i64 @strlen(ptr noundef %25) #11
  %27 = trunc i64 %26 to i32
  store i32 %27, ptr %6, align 4
  store i32 0, ptr %4, align 4
  br label %28

28:                                               ; preds = %77, %23
  %29 = load i32, ptr %4, align 4
  %30 = load i32, ptr getelementptr inbounds nuw (%struct.slurm_opt_t, ptr @opt, i32 0, i32 102), align 8
  %31 = icmp slt i32 %29, %30
  br i1 %31, label %32, label %80

32:                                               ; preds = %28
  %33 = load ptr, ptr getelementptr inbounds nuw (%struct.slurm_opt_t, ptr @opt, i32 0, i32 101), align 8
  %34 = load i32, ptr %4, align 4
  %35 = sext i32 %34 to i64
  %36 = getelementptr inbounds ptr, ptr %33, i64 %35
  %37 = load ptr, ptr %36, align 8
  %38 = load ptr, ptr %7, align 8
  %39 = load i32, ptr %6, align 4
  %40 = sext i32 %39 to i64
  %41 = call i32 @xstrncmp(ptr noundef %37, ptr noundef %38, i64 noundef %40)
  %42 = icmp ne i32 %41, 0
  br i1 %42, label %43, label %44

43:                                               ; preds = %32
  br label %77

44:                                               ; preds = %32
  %45 = load ptr, ptr getelementptr inbounds nuw (%struct.slurm_opt_t, ptr @opt, i32 0, i32 101), align 8
  %46 = load i32, ptr %4, align 4
  %47 = sext i32 %46 to i64
  %48 = getelementptr inbounds ptr, ptr %45, i64 %47
  call void @slurm_xfree(ptr noundef %48)
  %49 = load i32, ptr %4, align 4
  %50 = add nsw i32 %49, 1
  store i32 %50, ptr %5, align 4
  br label %51

51:                                               ; preds = %65, %44
  %52 = load i32, ptr %5, align 4
  %53 = load i32, ptr getelementptr inbounds nuw (%struct.slurm_opt_t, ptr @opt, i32 0, i32 102), align 8
  %54 = icmp slt i32 %52, %53
  br i1 %54, label %55, label %70

55:                                               ; preds = %51
  %56 = load ptr, ptr getelementptr inbounds nuw (%struct.slurm_opt_t, ptr @opt, i32 0, i32 101), align 8
  %57 = load i32, ptr %5, align 4
  %58 = sext i32 %57 to i64
  %59 = getelementptr inbounds ptr, ptr %56, i64 %58
  %60 = load ptr, ptr %59, align 8
  %61 = load ptr, ptr getelementptr inbounds nuw (%struct.slurm_opt_t, ptr @opt, i32 0, i32 101), align 8
  %62 = load i32, ptr %4, align 4
  %63 = sext i32 %62 to i64
  %64 = getelementptr inbounds ptr, ptr %61, i64 %63
  store ptr %60, ptr %64, align 8
  br label %65

65:                                               ; preds = %55
  %66 = load i32, ptr %4, align 4
  %67 = add nsw i32 %66, 1
  store i32 %67, ptr %4, align 4
  %68 = load i32, ptr %5, align 4
  %69 = add nsw i32 %68, 1
  store i32 %69, ptr %5, align 4
  br label %51, !llvm.loop !28

70:                                               ; preds = %51
  %71 = load i32, ptr getelementptr inbounds nuw (%struct.slurm_opt_t, ptr @opt, i32 0, i32 102), align 8
  %72 = add nsw i32 %71, -1
  store i32 %72, ptr getelementptr inbounds nuw (%struct.slurm_opt_t, ptr @opt, i32 0, i32 102), align 8
  %73 = load i32, ptr getelementptr inbounds nuw (%struct.slurm_opt_t, ptr @opt, i32 0, i32 102), align 8
  %74 = icmp eq i32 %73, 0
  br i1 %74, label %75, label %76

75:                                               ; preds = %70
  call void @slurm_xfree(ptr noundef getelementptr inbounds nuw (%struct.slurm_opt_t, ptr @opt, i32 0, i32 101))
  br label %76

76:                                               ; preds = %75, %70
  store i32 0, ptr %2, align 4
  store i32 1, ptr %8, align 4
  br label %81

77:                                               ; preds = %43
  %78 = load i32, ptr %4, align 4
  %79 = add nsw i32 %78, 1
  store i32 %79, ptr %4, align 4
  br label %28, !llvm.loop !29

80:                                               ; preds = %28
  store i32 0, ptr %2, align 4
  store i32 1, ptr %8, align 4
  br label %81

81:                                               ; preds = %80, %76, %21
  call void @llvm.lifetime.end.p0(i64 8, ptr %7) #9
  call void @llvm.lifetime.end.p0(i64 4, ptr %6) #9
  call void @llvm.lifetime.end.p0(i64 4, ptr %5) #9
  call void @llvm.lifetime.end.p0(i64 4, ptr %4) #9
  %82 = load i32, ptr %2, align 4
  ret i32 %82
}