; Function Attrs: nounwind uwtable
define dso_local range(i32 -1, 1) i32 @spank_unset_job_env(ptr noundef %0) local_unnamed_addr #0 {
  %2 = alloca ptr, align 8
  call void @llvm.lifetime.start.p0(i64 8, ptr nonnull %2) #17
  store ptr null, ptr %2, align 8
  %3 = icmp eq ptr %0, null
  br i1 %3, label %9, label %4

4:                                                ; preds = %1
  %5 = load i8, ptr %0, align 1
  %6 = icmp eq i8 %5, 0
  br i1 %6, label %9, label %7

7:                                                ; preds = %4
  %8 = tail call ptr @strchr(ptr noundef nonnull dereferenceable(1) %0, i32 noundef 61) #19
  %.not = icmp eq ptr %8, null
  br i1 %.not, label %11, label %9

9:                                                ; preds = %7, %4, %1
  %10 = tail call ptr @__errno_location() #20
  store i32 22, ptr %10, align 4
  br label %.loopexit

11:                                               ; preds = %7
  call void @_xstrcat(ptr noundef nonnull %2, ptr noundef nonnull %0) #17
  call void @_xstrcat(ptr noundef nonnull %2, ptr noundef nonnull @.str.105) #17
  %12 = load i32, ptr getelementptr inbounds nuw (i8, ptr @opt, i64 656), align 8
  %13 = icmp sgt i32 %12, 0
  br i1 %13, label %.lr.ph, label %.loopexit

.lr.ph:                                           ; preds = %11
  %14 = load ptr, ptr %2, align 8
  %15 = call i64 @strlen(ptr noundef nonnull dereferenceable(1) %14) #19
  %sext = shl i64 %15, 32
  %16 = ashr exact i64 %sext, 32
  br label %17

17:                                               ; preds = %.lr.ph, %39
  %indvars.iv32 = phi i64 [ 1, %.lr.ph ], [ %indvars.iv.next33, %39 ]
  %indvars.iv = phi i64 [ 0, %.lr.ph ], [ %indvars.iv.next, %39 ]
  %18 = load ptr, ptr getelementptr inbounds nuw (i8, ptr @opt, i64 648), align 8
  %19 = getelementptr inbounds nuw ptr, ptr %18, i64 %indvars.iv
  %20 = load ptr, ptr %19, align 8
  %21 = load ptr, ptr %2, align 8
  %22 = call i32 @xstrncmp(ptr noundef %20, ptr noundef %21, i64 noundef %16) #17
  %.not19 = icmp eq i32 %22, 0
  br i1 %.not19, label %23, label %39

23:                                               ; preds = %17
  %24 = trunc nuw nsw i64 %indvars.iv to i32
  %25 = load ptr, ptr getelementptr inbounds nuw (i8, ptr @opt, i64 648), align 8
  %26 = getelementptr inbounds nuw ptr, ptr %25, i64 %indvars.iv
  call void @slurm_xfree(ptr noundef %26) #17
  %.01523 = add nuw nsw i32 %24, 1
  %27 = load i32, ptr getelementptr inbounds nuw (i8, ptr @opt, i64 656), align 8
  %28 = icmp slt i32 %.01523, %27
  br i1 %28, label %.lr.ph26, label %._crit_edge

.lr.ph26:                                         ; preds = %23, %.lr.ph26
  %indvars.iv38 = phi i64 [ %indvars.iv.next39, %.lr.ph26 ], [ %indvars.iv, %23 ]
  %indvars.iv35 = phi i64 [ %indvars.iv.next36, %.lr.ph26 ], [ %indvars.iv32, %23 ]
  %29 = load ptr, ptr getelementptr inbounds nuw (i8, ptr @opt, i64 648), align 8
  %30 = getelementptr inbounds nuw ptr, ptr %29, i64 %indvars.iv35
  %31 = load ptr, ptr %30, align 8
  %32 = getelementptr inbounds nuw ptr, ptr %29, i64 %indvars.iv38
  store ptr %31, ptr %32, align 8
  %indvars.iv.next39 = add nuw nsw i64 %indvars.iv38, 1
  %indvars.iv.next36 = add nuw nsw i64 %indvars.iv35, 1
  %33 = load i32, ptr getelementptr inbounds nuw (i8, ptr @opt, i64 656), align 8
  %34 = trunc nuw i64 %indvars.iv.next36 to i32
  %35 = icmp sgt i32 %33, %34
  br i1 %35, label %.lr.ph26, label %._crit_edge, !llvm.loop !27

._crit_edge:                                      ; preds = %.lr.ph26, %23
  %.lcssa = phi i32 [ %27, %23 ], [ %33, %.lr.ph26 ]
  %36 = add nsw i32 %.lcssa, -1
  store i32 %36, ptr getelementptr inbounds nuw (i8, ptr @opt, i64 656), align 8
  %37 = icmp eq i32 %36, 0
  br i1 %37, label %38, label %.loopexit

38:                                               ; preds = %._crit_edge
  call void @slurm_xfree(ptr noundef nonnull getelementptr inbounds nuw (i8, ptr @opt, i64 648)) #17
  br label %.loopexit

39:                                               ; preds = %17
  %indvars.iv.next = add nuw nsw i64 %indvars.iv, 1
  %40 = load i32, ptr getelementptr inbounds nuw (i8, ptr @opt, i64 656), align 8
  %41 = sext i32 %40 to i64
  %42 = icmp slt i64 %indvars.iv.next, %41
  %indvars.iv.next33 = add nuw nsw i64 %indvars.iv32, 1
  br i1 %42, label %17, label %.loopexit, !llvm.loop !28

.loopexit:                                        ; preds = %39, %11, %._crit_edge, %38, %9
  %.0 = phi i32 [ -1, %9 ], [ 0, %38 ], [ 0, %._crit_edge ], [ 0, %11 ], [ 0, %39 ]
  call void @llvm.lifetime.end.p0(i64 8, ptr nonnull %2) #17
  ret i32 %.0
}